target datalayout = "e-m:e-p270:32:32-p271:32:32-p272:64:64-i64:64-i128:128-f80:128-n8:16:32:64-S128"
target triple = "x86_64-pc-linux-gnu"

%class.FactUnion = type <{ %class.Fact.base, [4 x i8], ptr, i32, [4 x i8] }>
%class.Fact.base = type <{ ptr, i32 }>

; Function Attrs: mustprogress nounwind uwtable
define linkonce_odr dso_local noundef i32 @_ZNK9FactUnion20get_last_written_fidEv(ptr noundef nonnull align 8 dereferenceable(28) %0) #5 comdat align 2 {
  %2 = alloca ptr, align 8
  store ptr %0, ptr %2, align 8, !tbaa !4
  %3 = load ptr, ptr %2, align 8
  %4 = getelementptr inbounds nuw %class.FactUnion, ptr %3, i32 0, i32 3
  %5 = load i32, ptr %4, align 8, !tbaa !18
  ret i32 %5
}

; Function Attrs: mustprogress uwtable
define dso_local noundef zeroext i1 @_ZNK9FactUnion5equalERK4Fact(ptr noundef nonnull align 8 dereferenceable(28) %0, ptr noundef nonnull align 8 dereferenceable(12) %1) unnamed_addr #4 align 2 {
  %3 = alloca i1, align 1
  %4 = alloca ptr, align 8
  %5 = alloca ptr, align 8
  %6 = alloca ptr, align 8
  store ptr %0, ptr %4, align 8, !tbaa !4
  store ptr %1, ptr %5, align 8, !tbaa !92
  %7 = load ptr, ptr %4, align 8
  %8 = load ptr, ptr %5, align 8, !tbaa !92
  %9 = load ptr, ptr %7, align 8, !tbaa !11
  %10 = getelementptr inbounds ptr, ptr %9, i64 11
  %11 = load ptr, ptr %10, align 8
  %12 = call noundef zeroext i1 %11(ptr noundef nonnull align 8 dereferenceable(12) %7, ptr noundef nonnull align 8 dereferenceable(12) %8)
  br i1 %12, label %13, label %20

13:                                               ; preds = %2
  call void @llvm.lifetime.start.p0(i64 8, ptr %6) #3
  %14 = load ptr, ptr %5, align 8, !tbaa !92
  store ptr %14, ptr %6, align 8, !tbaa !4
  %15 = getelementptr inbounds nuw %class.FactUnion, ptr %7, i32 0, i32 3
  %16 = load i32, ptr %15, align 8, !tbaa !18
  %17 = load ptr, ptr %6, align 8, !tbaa !4
  %18 = call noundef i32 @_ZNK9FactUnion20get_last_written_fidEv(ptr noundef nonnull align 8 dereferenceable(28) %17)
  %19 = icmp eq i32 %16, %18
  store i1 %19, ptr %3, align 1
  call void @llvm.lifetime.end.p0(i64 8, ptr %6) #3
  br label %21

20:                                               ; preds = %2
  store i1 false, ptr %3, align 1
  br label %21

21:                                               ; preds = %20, %13
  %22 = load i1, ptr %3, align 1
  ret i1 %22
}